; Function Attrs: mustprogress uwtable
define dso_local void @_ZN3tev11ImageViewer14setPlayingBackEb(ptr noundef nonnull align 16 dereferenceable(972) %0, i1 noundef zeroext %1) local_unnamed_addr #7 align 2 {
  %3 = getelementptr inbounds i8, ptr %0, i64 824
  %4 = load ptr, ptr %3, align 8
  %5 = zext i1 %1 to i8
  %6 = getelementptr inbounds i8, ptr %4, i64 168
  store i8 %5, ptr %6, align 8
  %7 = tail call i64 @_ZNSt3__16chrono12steady_clock3nowEv() #39
  %8 = getelementptr inbounds i8, ptr %0, i64 840
  store i64 %7, ptr %8, align 8
  tail call void @_ZN7nanogui6Screen6redrawEv(ptr noundef nonnull align 16 dereferenceable(384) %0)
  ret void
}